target datalayout = "e-m:e-p270:32:32-p271:32:32-p272:64:64-i64:64-i128:128-f80:128-n8:16:32:64-S128"
target triple = "x86_64-pc-linux-gnu"

%struct.strbuf = type { i64, i64, ptr }
%struct.object_id = type { [32 x i8], i32 }
%struct.apply_state = type { ptr, %struct.lock_file, i32, i32, i32, i32, i32, i32, i32, i32, i32, i32, i32, i32, i32, i32, i32, i32, i32, ptr, ptr, i32, i32, ptr, ptr, i32, %struct.strbuf, i32, i32, i32, %struct.string_list, i32, i32, %struct.strset, %struct.strset, i32, i32, %struct.string_list, ptr, ptr, i32, i32, ptr, i32, i32, i32 }
%struct.lock_file = type { ptr }
%struct.strset = type { %struct.strmap }
%struct.strmap = type { %struct.hashmap, ptr, i8 }
%struct.hashmap = type { ptr, ptr, ptr, i32, i32, i32, i32, i8 }
%struct.string_list = type { ptr, i64, i64, i8, ptr }
%struct.patch = type { ptr, ptr, ptr, i32, i32, i32, i32, i32, i32, i32, i32, i32, i32, i16, ptr, ptr, i64, [65 x i8], [65 x i8], ptr, [3 x %struct.object_id] }

@stdout = external global ptr, align 8
@.str.257 = private unnamed_addr constant [5 x i8] c"-\09-\09\00", align 1
@.str.258 = private unnamed_addr constant [7 x i8] c"%d\09%d\09\00", align 1

; Function Attrs: nounwind uwtable
define internal void @numstat_patch_list(ptr noundef %0, ptr noundef %1) #0 {
  %3 = alloca ptr, align 8
  %4 = alloca ptr, align 8
  %5 = alloca ptr, align 8
  store ptr %0, ptr %3, align 8, !tbaa !4
  store ptr %1, ptr %4, align 8, !tbaa !60
  br label %6

6:                                                ; preds = %47, %2
  %7 = load ptr, ptr %4, align 8, !tbaa !60
  %8 = icmp ne ptr %7, null
  br i1 %8, label %9, label %51

9:                                                ; preds = %6
  call void @llvm.lifetime.start.p0(i64 8, ptr %5) #12
  %10 = load ptr, ptr %4, align 8, !tbaa !60
  %11 = getelementptr inbounds nuw %struct.patch, ptr %10, i32 0, i32 0
  %12 = load ptr, ptr %11, align 8, !tbaa !67
  %13 = icmp ne ptr %12, null
  br i1 %13, label %14, label %18

14:                                               ; preds = %9
  %15 = load ptr, ptr %4, align 8, !tbaa !60
  %16 = getelementptr inbounds nuw %struct.patch, ptr %15, i32 0, i32 0
  %17 = load ptr, ptr %16, align 8, !tbaa !67
  br label %22

18:                                               ; preds = %9
  %19 = load ptr, ptr %4, align 8, !tbaa !60
  %20 = getelementptr inbounds nuw %struct.patch, ptr %19, i32 0, i32 1
  %21 = load ptr, ptr %20, align 8, !tbaa !66
  br label %22

22:                                               ; preds = %18, %14
  %23 = phi ptr [ %17, %14 ], [ %21, %18 ]
  store ptr %23, ptr %5, align 8, !tbaa !11
  %24 = load ptr, ptr %4, align 8, !tbaa !60
  %25 = getelementptr inbounds nuw %struct.patch, ptr %24, i32 0, i32 13
  %26 = load i16, ptr %25, align 8
  %27 = lshr i16 %26, 2
  %28 = and i16 %27, 1
  %29 = zext i16 %28 to i32
  %30 = icmp ne i32 %29, 0
  br i1 %30, label %31, label %33

31:                                               ; preds = %22
  %32 = call i32 (ptr, ...) @printf(ptr noundef @.str.257)
  br label %41

33:                                               ; preds = %22
  %34 = load ptr, ptr %4, align 8, !tbaa !60
  %35 = getelementptr inbounds nuw %struct.patch, ptr %34, i32 0, i32 9
  %36 = load i32, ptr %35, align 8, !tbaa !176
  %37 = load ptr, ptr %4, align 8, !tbaa !60
  %38 = getelementptr inbounds nuw %struct.patch, ptr %37, i32 0, i32 10
  %39 = load i32, ptr %38, align 4, !tbaa !177
  %40 = call i32 (ptr, ...) @printf(ptr noundef @.str.258, i32 noundef %36, i32 noundef %39)
  br label %41

41:                                               ; preds = %33, %31
  %42 = load ptr, ptr %5, align 8, !tbaa !11
  %43 = load ptr, ptr @stdout, align 8, !tbaa !131
  %44 = load ptr, ptr %3, align 8, !tbaa !4
  %45 = getelementptr inbounds nuw %struct.apply_state, ptr %44, i32 0, i32 25
  %46 = load i32, ptr %45, align 8, !tbaa !29
  call void @write_name_quoted(ptr noundef %42, ptr noundef %43, i32 noundef %46)
  call void @llvm.lifetime.end.p0(i64 8, ptr %5) #12
  br label %47

47:                                               ; preds = %41
  %48 = load ptr, ptr %4, align 8, !tbaa !60
  %49 = getelementptr inbounds nuw %struct.patch, ptr %48, i32 0, i32 19
  %50 = load ptr, ptr %49, align 8, !tbaa !130
  store ptr %50, ptr %4, align 8, !tbaa !60
  br label %6, !llvm.loop !205

51:                                               ; preds = %6
  ret void
}