; Function Attrs: nounwind uwtable
define internal fastcc void @numstat_patch_list(ptr noundef readonly captures(none) %0, ptr noundef readonly %1) unnamed_addr #0 {
  %.not13 = icmp eq ptr %1, null
  br i1 %.not13, label %._crit_edge, label %.lr.ph

.lr.ph:                                           ; preds = %2
  %3 = getelementptr inbounds nuw i8, ptr %0, i64 128
  br label %4

4:                                                ; preds = %.lr.ph, %22
  %.014 = phi ptr [ %1, %.lr.ph ], [ %26, %22 ]
  %5 = load ptr, ptr %.014, align 8, !tbaa !65
  %.not11 = icmp eq ptr %5, null
  br i1 %.not11, label %6, label %9

6:                                                ; preds = %4
  %7 = getelementptr inbounds nuw i8, ptr %.014, i64 8
  %8 = load ptr, ptr %7, align 8, !tbaa !64
  br label %9

9:                                                ; preds = %4, %6
  %10 = phi ptr [ %8, %6 ], [ %5, %4 ]
  %11 = getelementptr inbounds nuw i8, ptr %.014, i64 64
  %12 = load i16, ptr %11, align 8
  %13 = and i16 %12, 4
  %.not12 = icmp eq i16 %13, 0
  br i1 %.not12, label %16, label %14

14:                                               ; preds = %9
  %15 = tail call i32 (ptr, ...) @printf(ptr noundef nonnull dereferenceable(1) @.str.257)
  br label %22

16:                                               ; preds = %9
  %17 = getelementptr inbounds nuw i8, ptr %.014, i64 48
  %18 = load i32, ptr %17, align 8, !tbaa !133
  %19 = getelementptr inbounds nuw i8, ptr %.014, i64 52
  %20 = load i32, ptr %19, align 4, !tbaa !134
  %21 = tail call i32 (ptr, ...) @printf(ptr noundef nonnull dereferenceable(1) @.str.258, i32 noundef %18, i32 noundef %20)
  br label %22

22:                                               ; preds = %16, %14
  %23 = load ptr, ptr @stdout, align 8, !tbaa !128
  %24 = load i32, ptr %3, align 8, !tbaa !25
  tail call void @write_name_quoted(ptr noundef %10, ptr noundef %23, i32 noundef %24) #21
  %25 = getelementptr inbounds nuw i8, ptr %.014, i64 232
  %26 = load ptr, ptr %25, align 8, !tbaa !141
  %.not = icmp eq ptr %26, null
  br i1 %.not, label %._crit_edge, label %4, !llvm.loop !215

._crit_edge:                                      ; preds = %22, %2
  ret void
}